Certificate:
    Data:
        Version: 3 (0x2)
        Serial Number: 4 (0x4)
    Signature Algorithm: sha256WithRSAEncryption
        Issuer: C=MX, ST=MX, L=CDMX, O=MINOIR, OU=MINOIR, CN=MINOIR CA/name=EasyRSA/emailAddress=oamo19@gmail.com
        Validity
            Not Before: May 21 02:01:07 2017 GMT
            Not After : May 19 02:01:07 2027 GMT
        Subject: C=MX, ST=MX, L=CDMX, O=MINOIR, OU=MINOIR, CN=client3/name=EasyRSA/emailAddress=oamo19@gmail.com
        Subject Public Key Info:
            Public Key Algorithm: rsaEncryption
                Public-Key: (2048 bit)
                Modulus:
                    00:b2:ff:4a:8a:f2:31:fd:6a:63:59:54:ff:da:73:
                    c8:26:11:4c:0b:91:d1:0c:aa:dc:0c:0b:8e:36:aa:
                    a0:24:1d:47:72:0b:c3:c2:ec:cf:80:79:72:93:6a:
                    0a:62:d2:ce:fa:3f:d1:56:5a:17:15:85:85:21:d5:
                    b2:04:87:bf:48:88:a5:b0:52:5a:d3:ab:54:1e:91:
                    a1:e5:89:ba:4b:39:09:fc:fa:2c:e9:a2:7c:67:ef:
                    bf:bf:f7:b5:8e:49:66:08:be:01:00:f8:d3:27:f5:
                    08:bd:06:91:4a:a2:8d:2b:5b:97:3b:d9:77:aa:41:
                    3f:6a:42:86:f6:17:05:d0:d7:a1:a3:76:4a:f1:95:
                    7a:38:7f:8a:d5:78:33:e6:53:c5:f4:ed:7b:23:68:
                    17:52:6a:ab:b7:f9:90:b3:f8:6a:f7:4a:8e:12:dc:
                    c1:86:13:29:b5:d4:4d:f0:37:88:d6:30:9d:be:0d:
                    51:97:af:86:10:bf:dd:db:14:b7:01:5b:66:54:08:
                    3b:a7:54:fa:a5:9b:49:b4:ac:9e:17:a2:11:41:34:
                    6d:00:98:cc:04:24:54:05:e6:2a:17:64:15:7a:58:
                    ee:7d:f0:f4:0f:93:3a:98:2c:57:01:ee:8e:7f:7b:
                    c1:f1:f6:4f:f8:f3:21:56:b7:e1:1b:04:15:28:30:
                    b5:2d
                Exponent: 65537 (0x10001)
        X509v3 extensions:
            X509v3 Basic Constraints: 
                CA:FALSE
            Netscape Comment: 
                Easy-RSA Generated Certificate
            X509v3 Subject Key Identifier: 
                50:C2:23:DE:3B:7F:9A:9F:B6:83:68:F2:3A:E1:1A:1E:BF:1F:8D:45
            X509v3 Authority Key Identifier: 
                keyid:62:92:96:C4:EA:AF:DC:D8:15:24:58:A1:36:7A:C4:F0:BF:B5:67:3F
                DirName:/C=MX/ST=MX/L=CDMX/O=MINOIR/OU=MINOIR/CN=MINOIR CA/name=EasyRSA/emailAddress=oamo19@gmail.com
                serial:9A:9D:93:1F:48:D2:15:0D

            X509v3 Extended Key Usage: 
                TLS Web Client Authentication
            X509v3 Key Usage: 
                Digital Signature
            X509v3 Subject Alternative Name: 
                DNS:client3
    Signature Algorithm: sha256WithRSAEncryption
         1d:10:57:03:53:df:75:f1:42:e2:1c:6d:db:1e:70:79:c8:b3:
         4b:b7:1e:21:b0:6f:0e:09:b8:db:d9:60:2e:db:99:0d:ee:08:
         d5:23:eb:49:ee:a1:44:e5:6c:80:92:dd:09:0d:49:5b:c0:16:
         66:ae:8d:ac:3b:ec:bd:95:14:ed:16:d8:f0:27:9d:90:5c:36:
         7c:be:01:f6:f7:c3:86:bb:08:5b:04:36:f6:c6:7b:44:28:ca:
         cf:f2:ca:28:09:60:91:fe:ad:95:41:74:14:29:86:f9:ad:82:
         c7:55:18:96:51:54:b0:3e:98:af:46:8c:f6:dc:10:58:9b:14:
         a5:54:ca:eb:e5:76:3a:41:be:6f:68:9c:38:b0:3e:5d:0d:96:
         c1:47:d0:79:64:25:be:ec:a8:be:ac:35:b6:c6:dd:90:b7:23:
         4a:55:dc:ed:8a:48:1a:24:72:26:01:35:57:b7:56:49:4e:b3:
         f6:53:11:26:8f:2a:a0:e0:76:f8:2d:82:be:09:1b:c8:e0:61:
         29:79:77:86:eb:38:c5:52:00:68:5c:00:ec:a2:8d:e0:ff:c3:
         bb:20:e5:13:a5:a3:2e:4e:10:6c:97:2a:cd:f3:5c:5a:72:14:
         b0:29:c7:1c:86:60:79:9b:62:8f:57:6f:7c:89:86:d0:f9:64:
         33:a9:75:64
-----BEGIN CERTIFICATE-----
MIIE/jCCA+agAwIBAgIBBDANBgkqhkiG9w0BAQsFADCBkjELMAkGA1UEBhMCTVgx
CzAJBgNVBAgTAk1YMQ0wCwYDVQQHEwRDRE1YMQ8wDQYDVQQKEwZNSU5PSVIxDzAN
BgNVBAsTBk1JTk9JUjESMBAGA1UEAxMJTUlOT0lSIENBMRAwDgYDVQQpEwdFYXN5
UlNBMR8wHQYJKoZIhvcNAQkBFhBvYW1vMTlAZ21haWwuY29tMB4XDTE3MDUyMTAy
MDEwN1oXDTI3MDUxOTAyMDEwN1owgZAxCzAJBgNVBAYTAk1YMQswCQYDVQQIEwJN
WDENMAsGA1UEBxMEQ0RNWDEPMA0GA1UEChMGTUlOT0lSMQ8wDQYDVQQLEwZNSU5P
SVIxEDAOBgNVBAMTB2NsaWVudDMxEDAOBgNVBCkTB0Vhc3lSU0ExHzAdBgkqhkiG
9w0BCQEWEG9hbW8xOUBnbWFpbC5jb20wggEiMA0GCSqGSIb3DQEBAQUAA4IBDwAw
ggEKAoIBAQCy/0qK8jH9amNZVP/ac8gmEUwLkdEMqtwMC442qqAkHUdyC8PC7M+A
eXKTagpi0s76P9FWWhcVhYUh1bIEh79IiKWwUlrTq1QekaHlibpLOQn8+izponxn
77+/97WOSWYIvgEA+NMn9Qi9BpFKoo0rW5c72XeqQT9qQob2FwXQ16GjdkrxlXo4
f4rVeDPmU8X07XsjaBdSaqu3+ZCz+Gr3So4S3MGGEym11E3wN4jWMJ2+DVGXr4YQ
v93bFLcBW2ZUCDunVPqlm0m0rJ4XohFBNG0AmMwEJFQF5ioXZBV6WO598PQPkzqY
LFcB7o5/e8Hx9k/48yFWt+EbBBUoMLUtAgMBAAGjggFdMIIBWTAJBgNVHRMEAjAA
MC0GCWCGSAGG+EIBDQQgFh5FYXN5LVJTQSBHZW5lcmF0ZWQgQ2VydGlmaWNhdGUw
HQYDVR0OBBYEFFDCI947f5qftoNo8jrhGh6/H41FMIHHBgNVHSMEgb8wgbyAFGKS
lsTqr9zYFSRYoTZ6xPC/tWc/oYGYpIGVMIGSMQswCQYDVQQGEwJNWDELMAkGA1UE
CBMCTVgxDTALBgNVBAcTBENETVgxDzANBgNVBAoTBk1JTk9JUjEPMA0GA1UECxMG
TUlOT0lSMRIwEAYDVQQDEwlNSU5PSVIgQ0ExEDAOBgNVBCkTB0Vhc3lSU0ExHzAd
BgkqhkiG9w0BCQEWEG9hbW8xOUBnbWFpbC5jb22CCQCanZMfSNIVDTATBgNVHSUE
DDAKBggrBgEFBQcDAjALBgNVHQ8EBAMCB4AwEgYDVR0RBAswCYIHY2xpZW50MzAN
BgkqhkiG9w0BAQsFAAOCAQEAHRBXA1PfdfFC4hxt2x5wecizS7ceIbBvDgm429lg
LtuZDe4I1SPrSe6hROVsgJLdCQ1JW8AWZq6NrDvsvZUU7RbY8CedkFw2fL4B9vfD
hrsIWwQ29sZ7RCjKz/LKKAlgkf6tlUF0FCmG+a2Cx1UYllFUsD6Yr0aM9twQWJsU
pVTK6+V2OkG+b2icOLA+XQ2WwUfQeWQlvuyovqw1tsbdkLcjSlXc7YpIGiRyJgE1
V7dWSU6z9lMRJo8qoOB2+C2CvgkbyOBhKXl3hus4xVIAaFwA7KKN4P/DuyDlE6Wj
Lk4QbJcqzfNcWnIUsCnHHIZgeZtij1dvfImG0PlkM6l1ZA==
-----END CERTIFICATE-----
